target datalayout = "e-m:e-p270:32:32-p271:32:32-p272:64:64-i64:64-i128:128-f80:128-n8:16:32:64-S128"
target triple = "x86_64-pc-linux-gnu"

%struct.Supp_Man_t_ = type { i32, i32, ptr, i32, ptr, ptr }
%struct.Vec_Ptr_t_ = type { i32, i32, ptr }

; Function Attrs: nounwind uwtable
define internal void @Vec_PtrGrow(ptr noundef %0, i32 noundef %1) #0 {
  %3 = alloca ptr, align 8
  %4 = alloca i32, align 4
  store ptr %0, ptr %3, align 8
  store i32 %1, ptr %4, align 4
  %5 = load ptr, ptr %3, align 8
  %6 = getelementptr inbounds %struct.Vec_Ptr_t_, ptr %5, i32 0, i32 0
  %7 = load i32, ptr %6, align 8
  %8 = load i32, ptr %4, align 4
  %9 = icmp sge i32 %7, %8
  br i1 %9, label %10, label %11

10:                                               ; preds = %2
  br label %36

11:                                               ; preds = %2
  %12 = load ptr, ptr %3, align 8
  %13 = getelementptr inbounds %struct.Vec_Ptr_t_, ptr %12, i32 0, i32 2
  %14 = load ptr, ptr %13, align 8
  %15 = icmp ne ptr %14, null
  br i1 %15, label %16, label %24

16:                                               ; preds = %11
  %17 = load ptr, ptr %3, align 8
  %18 = getelementptr inbounds %struct.Vec_Ptr_t_, ptr %17, i32 0, i32 2
  %19 = load ptr, ptr %18, align 8
  %20 = load i32, ptr %4, align 4
  %21 = sext i32 %20 to i64
  %22 = mul i64 8, %21
  %23 = call ptr @realloc(ptr noundef %19, i64 noundef %22) #12
  br label %29

24:                                               ; preds = %11
  %25 = load i32, ptr %4, align 4
  %26 = sext i32 %25 to i64
  %27 = mul i64 8, %26
  %28 = call noalias ptr @malloc(i64 noundef %27) #9
  br label %29

29:                                               ; preds = %24, %16
  %30 = phi ptr [ %23, %16 ], [ %28, %24 ]
  %31 = load ptr, ptr %3, align 8
  %32 = getelementptr inbounds %struct.Vec_Ptr_t_, ptr %31, i32 0, i32 2
  store ptr %30, ptr %32, align 8
  %33 = load i32, ptr %4, align 4
  %34 = load ptr, ptr %3, align 8
  %35 = getelementptr inbounds %struct.Vec_Ptr_t_, ptr %34, i32 0, i32 0
  store i32 %33, ptr %35, align 8
  br label %36

36:                                               ; preds = %29, %10
  ret void
}

; Function Attrs: nounwind uwtable
define internal void @Vec_PtrPush(ptr noundef %0, ptr noundef %1) #0 {
  %3 = alloca ptr, align 8
  %4 = alloca ptr, align 8
  store ptr %0, ptr %3, align 8
  store ptr %1, ptr %4, align 8
  %5 = load ptr, ptr %3, align 8
  %6 = getelementptr inbounds %struct.Vec_Ptr_t_, ptr %5, i32 0, i32 1
  %7 = load i32, ptr %6, align 4
  %8 = load ptr, ptr %3, align 8
  %9 = getelementptr inbounds %struct.Vec_Ptr_t_, ptr %8, i32 0, i32 0
  %10 = load i32, ptr %9, align 8
  %11 = icmp eq i32 %7, %10
  br i1 %11, label %12, label %26

12:                                               ; preds = %2
  %13 = load ptr, ptr %3, align 8
  %14 = getelementptr inbounds %struct.Vec_Ptr_t_, ptr %13, i32 0, i32 0
  %15 = load i32, ptr %14, align 8
  %16 = icmp slt i32 %15, 16
  br i1 %16, label %17, label %19

17:                                               ; preds = %12
  %18 = load ptr, ptr %3, align 8
  call void @Vec_PtrGrow(ptr noundef %18, i32 noundef 16)
  br label %25

19:                                               ; preds = %12
  %20 = load ptr, ptr %3, align 8
  %21 = load ptr, ptr %3, align 8
  %22 = getelementptr inbounds %struct.Vec_Ptr_t_, ptr %21, i32 0, i32 0
  %23 = load i32, ptr %22, align 8
  %24 = mul nsw i32 2, %23
  call void @Vec_PtrGrow(ptr noundef %20, i32 noundef %24)
  br label %25

25:                                               ; preds = %19, %17
  br label %26

26:                                               ; preds = %25, %2
  %27 = load ptr, ptr %4, align 8
  %28 = load ptr, ptr %3, align 8
  %29 = getelementptr inbounds %struct.Vec_Ptr_t_, ptr %28, i32 0, i32 2
  %30 = load ptr, ptr %29, align 8
  %31 = load ptr, ptr %3, align 8
  %32 = getelementptr inbounds %struct.Vec_Ptr_t_, ptr %31, i32 0, i32 1
  %33 = load i32, ptr %32, align 4
  %34 = add nsw i32 %33, 1
  store i32 %34, ptr %32, align 4
  %35 = sext i32 %33 to i64
  %36 = getelementptr inbounds ptr, ptr %30, i64 %35
  store ptr %27, ptr %36, align 8
  ret void
}

; Function Attrs: nounwind uwtable
define internal void @Vec_PtrWriteEntry(ptr noundef %0, i32 noundef %1, ptr noundef %2) #0 {
  %4 = alloca ptr, align 8
  %5 = alloca i32, align 4
  %6 = alloca ptr, align 8
  store ptr %0, ptr %4, align 8
  store i32 %1, ptr %5, align 4
  store ptr %2, ptr %6, align 8
  %7 = load ptr, ptr %6, align 8
  %8 = load ptr, ptr %4, align 8
  %9 = getelementptr inbounds %struct.Vec_Ptr_t_, ptr %8, i32 0, i32 2
  %10 = load ptr, ptr %9, align 8
  %11 = load i32, ptr %5, align 4
  %12 = sext i32 %11 to i64
  %13 = getelementptr inbounds ptr, ptr %10, i64 %12
  store ptr %7, ptr %13, align 8
  ret void
}

; Function Attrs: nounwind uwtable
define internal ptr @Supp_OneNext(ptr noundef %0) #0 {
  %2 = alloca ptr, align 8
  store ptr %0, ptr %2, align 8
  %3 = load ptr, ptr %2, align 8
  %4 = load ptr, ptr %3, align 8
  ret ptr %4
}

; Function Attrs: nounwind uwtable
define internal ptr @Vec_PtrEntry(ptr noundef %0, i32 noundef %1) #0 {
  %3 = alloca ptr, align 8
  %4 = alloca i32, align 4
  store ptr %0, ptr %3, align 8
  store i32 %1, ptr %4, align 4
  %5 = load ptr, ptr %3, align 8
  %6 = getelementptr inbounds %struct.Vec_Ptr_t_, ptr %5, i32 0, i32 2
  %7 = load ptr, ptr %6, align 8
  %8 = load i32, ptr %4, align 4
  %9 = sext i32 %8 to i64
  %10 = getelementptr inbounds ptr, ptr %7, i64 %9
  %11 = load ptr, ptr %10, align 8
  ret ptr %11
}

; Function Attrs: nounwind uwtable
define internal i32 @Supp_SizeType(i32 noundef %0, i32 noundef %1) #0 {
  %3 = alloca i32, align 4
  %4 = alloca i32, align 4
  store i32 %0, ptr %3, align 4
  store i32 %1, ptr %4, align 4
  %5 = load i32, ptr %3, align 4
  %6 = load i32, ptr %4, align 4
  %7 = sdiv i32 %5, %6
  %8 = load i32, ptr %3, align 4
  %9 = load i32, ptr %4, align 4
  %10 = srem i32 %8, %9
  %11 = icmp sgt i32 %10, 0
  %12 = zext i1 %11 to i32
  %13 = add nsw i32 %7, %12
  ret i32 %13
}

; Function Attrs: nounwind uwtable
define ptr @Supp_ManFetch(ptr noundef %0, i32 noundef %1) #0 {
  %3 = alloca ptr, align 8
  %4 = alloca ptr, align 8
  %5 = alloca i32, align 4
  %6 = alloca i32, align 4
  %7 = alloca i32, align 4
  %8 = alloca ptr, align 8
  store ptr %0, ptr %4, align 8
  store i32 %1, ptr %5, align 4
  %9 = load i32, ptr %5, align 4
  %10 = load ptr, ptr %4, align 8
  %11 = getelementptr inbounds %struct.Supp_Man_t_, ptr %10, i32 0, i32 1
  %12 = load i32, ptr %11, align 4
  %13 = call i32 @Supp_SizeType(i32 noundef %9, i32 noundef %12)
  store i32 %13, ptr %6, align 4
  %14 = load ptr, ptr %4, align 8
  %15 = getelementptr inbounds %struct.Supp_Man_t_, ptr %14, i32 0, i32 5
  %16 = load ptr, ptr %15, align 8
  %17 = load i32, ptr %6, align 4
  %18 = add nsw i32 %17, 1
  call void @Vec_PtrFillExtra(ptr noundef %16, i32 noundef %18, ptr noundef null)
  %19 = load ptr, ptr %4, align 8
  %20 = getelementptr inbounds %struct.Supp_Man_t_, ptr %19, i32 0, i32 5
  %21 = load ptr, ptr %20, align 8
  %22 = load i32, ptr %6, align 4
  %23 = call ptr @Vec_PtrEntry(ptr noundef %21, i32 noundef %22)
  store ptr %23, ptr %8, align 8
  %24 = icmp ne ptr %23, null
  br i1 %24, label %25, label %33

25:                                               ; preds = %2
  %26 = load ptr, ptr %4, align 8
  %27 = getelementptr inbounds %struct.Supp_Man_t_, ptr %26, i32 0, i32 5
  %28 = load ptr, ptr %27, align 8
  %29 = load i32, ptr %6, align 4
  %30 = load ptr, ptr %8, align 8
  %31 = call ptr @Supp_OneNext(ptr noundef %30)
  call void @Vec_PtrWriteEntry(ptr noundef %28, i32 noundef %29, ptr noundef %31)
  %32 = load ptr, ptr %8, align 8
  store ptr %32, ptr %3, align 8
  br label %80

33:                                               ; preds = %2
  %34 = load ptr, ptr %4, align 8
  %35 = getelementptr inbounds %struct.Supp_Man_t_, ptr %34, i32 0, i32 1
  %36 = load i32, ptr %35, align 4
  %37 = load i32, ptr %6, align 4
  %38 = mul nsw i32 %36, %37
  store i32 %38, ptr %7, align 4
  %39 = load ptr, ptr %4, align 8
  %40 = getelementptr inbounds %struct.Supp_Man_t_, ptr %39, i32 0, i32 3
  %41 = load i32, ptr %40, align 8
  %42 = load i32, ptr %7, align 4
  %43 = icmp slt i32 %41, %42
  br i1 %43, label %44, label %64

44:                                               ; preds = %33
  %45 = load ptr, ptr %4, align 8
  %46 = getelementptr inbounds %struct.Supp_Man_t_, ptr %45, i32 0, i32 0
  %47 = load i32, ptr %46, align 8
  %48 = sext i32 %47 to i64
  %49 = mul i64 1, %48
  %50 = call noalias ptr @malloc(i64 noundef %49) #9
  %51 = load ptr, ptr %4, align 8
  %52 = getelementptr inbounds %struct.Supp_Man_t_, ptr %51, i32 0, i32 2
  store ptr %50, ptr %52, align 8
  %53 = load ptr, ptr %4, align 8
  %54 = getelementptr inbounds %struct.Supp_Man_t_, ptr %53, i32 0, i32 0
  %55 = load i32, ptr %54, align 8
  %56 = load ptr, ptr %4, align 8
  %57 = getelementptr inbounds %struct.Supp_Man_t_, ptr %56, i32 0, i32 3
  store i32 %55, ptr %57, align 8
  %58 = load ptr, ptr %4, align 8
  %59 = getelementptr inbounds %struct.Supp_Man_t_, ptr %58, i32 0, i32 4
  %60 = load ptr, ptr %59, align 8
  %61 = load ptr, ptr %4, align 8
  %62 = getelementptr inbounds %struct.Supp_Man_t_, ptr %61, i32 0, i32 2
  %63 = load ptr, ptr %62, align 8
  call void @Vec_PtrPush(ptr noundef %60, ptr noundef %63)
  br label %64

64:                                               ; preds = %44, %33
  %65 = load ptr, ptr %4, align 8
  %66 = getelementptr inbounds %struct.Supp_Man_t_, ptr %65, i32 0, i32 2
  %67 = load ptr, ptr %66, align 8
  store ptr %67, ptr %8, align 8
  %68 = load i32, ptr %7, align 4
  %69 = load ptr, ptr %4, align 8
  %70 = getelementptr inbounds %struct.Supp_Man_t_, ptr %69, i32 0, i32 2
  %71 = load ptr, ptr %70, align 8
  %72 = sext i32 %68 to i64
  %73 = getelementptr inbounds i8, ptr %71, i64 %72
  store ptr %73, ptr %70, align 8
  %74 = load i32, ptr %7, align 4
  %75 = load ptr, ptr %4, align 8
  %76 = getelementptr inbounds %struct.Supp_Man_t_, ptr %75, i32 0, i32 3
  %77 = load i32, ptr %76, align 8
  %78 = sub nsw i32 %77, %74
  store i32 %78, ptr %76, align 8
  %79 = load ptr, ptr %8, align 8
  store ptr %79, ptr %3, align 8
  br label %80

80:                                               ; preds = %64, %25
  %81 = load ptr, ptr %3, align 8
  ret ptr %81
}