; Function Attrs: nounwind uwtable
define ptr @Supp_ManFetch(ptr noundef captures(none) %0, i32 noundef %1) local_unnamed_addr #2 {
  %3 = getelementptr inbounds nuw i8, ptr %0, i64 4
  %4 = load i32, ptr %3, align 4
  %5 = sdiv i32 %1, %4
  %6 = srem i32 %1, %4
  %7 = icmp sgt i32 %6, 0
  %8 = zext i1 %7 to i32
  %9 = add nsw i32 %5, %8
  %10 = getelementptr inbounds nuw i8, ptr %0, i64 32
  %11 = load ptr, ptr %10, align 8
  %12 = add nsw i32 %9, 1
  tail call fastcc void @Vec_PtrFillExtra(ptr noundef %11, i32 noundef %12)
  %13 = load ptr, ptr %10, align 8
  %14 = getelementptr i8, ptr %13, i64 8
  %.val = load ptr, ptr %14, align 8
  %15 = sext i32 %9 to i64
  %16 = getelementptr inbounds ptr, ptr %.val, i64 %15
  %17 = load ptr, ptr %16, align 8
  %.not = icmp eq ptr %17, null
  br i1 %.not, label %19, label %18

18:                                               ; preds = %2
  %.val27 = load ptr, ptr %17, align 8
  store ptr %.val27, ptr %16, align 8
  br label %70

19:                                               ; preds = %2
  %20 = load i32, ptr %3, align 4
  %21 = mul nsw i32 %20, %9
  %22 = getelementptr inbounds nuw i8, ptr %0, i64 16
  %23 = load i32, ptr %22, align 8
  %24 = icmp slt i32 %23, %21
  br i1 %24, label %25, label %63

25:                                               ; preds = %19
  %26 = load i32, ptr %0, align 8
  %27 = sext i32 %26 to i64
  %28 = tail call noalias ptr @malloc(i64 noundef %27) #22
  %29 = getelementptr inbounds nuw i8, ptr %0, i64 8
  store ptr %28, ptr %29, align 8
  store i32 %26, ptr %22, align 8
  %30 = getelementptr inbounds nuw i8, ptr %0, i64 24
  %31 = load ptr, ptr %30, align 8
  %32 = getelementptr inbounds nuw i8, ptr %31, i64 4
  %33 = load i32, ptr %32, align 4
  %34 = load i32, ptr %31, align 8
  %35 = icmp eq i32 %33, %34
  br i1 %35, label %36, label %.Vec_PtrGrow.exit11_crit_edge.i

.Vec_PtrGrow.exit11_crit_edge.i:                  ; preds = %25
  %.phi.trans.insert.i = getelementptr inbounds nuw i8, ptr %31, i64 8
  %.pre.i = load ptr, ptr %.phi.trans.insert.i, align 8
  br label %Vec_PtrPush.exit

36:                                               ; preds = %25
  %37 = icmp slt i32 %33, 16
  br i1 %37, label %38, label %46

38:                                               ; preds = %36
  %39 = getelementptr inbounds nuw i8, ptr %31, i64 8
  %40 = load ptr, ptr %39, align 8
  %.not9.i.i = icmp eq ptr %40, null
  br i1 %.not9.i.i, label %43, label %41

41:                                               ; preds = %38
  %42 = tail call dereferenceable_or_null(128) ptr @realloc(ptr noundef nonnull %40, i64 noundef 128) #24
  br label %Vec_PtrGrow.exit.i

43:                                               ; preds = %38
  %44 = tail call noalias dereferenceable_or_null(128) ptr @malloc(i64 noundef 128) #22
  br label %Vec_PtrGrow.exit.i

Vec_PtrGrow.exit.i:                               ; preds = %43, %41
  %45 = phi ptr [ %42, %41 ], [ %44, %43 ]
  store ptr %45, ptr %39, align 8
  store i32 16, ptr %31, align 8
  br label %Vec_PtrPush.exit

46:                                               ; preds = %36
  %47 = shl nuw nsw i32 %33, 1
  %48 = getelementptr inbounds nuw i8, ptr %31, i64 8
  %49 = load ptr, ptr %48, align 8
  %.not9.i10.i = icmp eq ptr %49, null
  %50 = zext nneg i32 %47 to i64
  %51 = shl nuw nsw i64 %50, 3
  br i1 %.not9.i10.i, label %54, label %52

52:                                               ; preds = %46
  %53 = tail call ptr @realloc(ptr noundef nonnull %49, i64 noundef %51) #24
  br label %56

54:                                               ; preds = %46
  %55 = tail call noalias ptr @malloc(i64 noundef %51) #22
  br label %56

56:                                               ; preds = %54, %52
  %57 = phi ptr [ %53, %52 ], [ %55, %54 ]
  store ptr %57, ptr %48, align 8
  store i32 %47, ptr %31, align 8
  br label %Vec_PtrPush.exit

Vec_PtrPush.exit:                                 ; preds = %.Vec_PtrGrow.exit11_crit_edge.i, %Vec_PtrGrow.exit.i, %56
  %58 = phi ptr [ %.pre.i, %.Vec_PtrGrow.exit11_crit_edge.i ], [ %57, %56 ], [ %45, %Vec_PtrGrow.exit.i ]
  %59 = load i32, ptr %32, align 4
  %60 = add nsw i32 %59, 1
  store i32 %60, ptr %32, align 4
  %61 = sext i32 %59 to i64
  %62 = getelementptr inbounds ptr, ptr %58, i64 %61
  store ptr %28, ptr %62, align 8
  %.pre = load i32, ptr %22, align 8
  br label %63

63:                                               ; preds = %Vec_PtrPush.exit, %19
  %64 = phi i32 [ %.pre, %Vec_PtrPush.exit ], [ %23, %19 ]
  %65 = getelementptr inbounds nuw i8, ptr %0, i64 8
  %66 = load ptr, ptr %65, align 8
  %67 = sext i32 %21 to i64
  %68 = getelementptr inbounds i8, ptr %66, i64 %67
  store ptr %68, ptr %65, align 8
  %69 = sub nsw i32 %64, %21
  store i32 %69, ptr %22, align 8
  br label %70

70:                                               ; preds = %63, %18
  %.0 = phi ptr [ %17, %18 ], [ %66, %63 ]
  ret ptr %.0
}